; ModuleID = 'bench/darktable/original/copy.c.ll'
source_filename = "bench/darktable/original/copy.c.ll"
target datalayout = "e-m:e-p270:32:32-p271:32:32-p272:64:64-i64:64-i128:128-f80:128-n8:16:32:64-S128"
target triple = "x86_64-pc-linux-gnu"

@.str = private unnamed_addr constant [2 x i8] c".\00", align 1
@.str.1 = private unnamed_addr constant [5 x i8] c".xmp\00", align 1
@.str.2 = private unnamed_addr constant [7 x i8] c"x-copy\00", align 1
@.str.3 = private unnamed_addr constant [1 x i8] zeroinitializer, align 1
@.str.4 = private unnamed_addr constant [5 x i8] c"copy\00", align 1
@.str.5 = private unnamed_addr constant [76 x i8] c"do a 1:1 copy of the selected files.\0Athe global options below do not apply!\00", align 1

; Function Attrs: mustprogress nofree norecurse nosync nounwind willreturn memory(none) uwtable
define noundef i32 @dt_module_dt_version() local_unnamed_addr #0 {
  ret i32 25
}

; Function Attrs: mustprogress nofree norecurse nosync nounwind willreturn memory(none) uwtable
define noundef i32 @dt_module_mod_version() local_unnamed_addr #0 {
  ret i32 1
}

; Function Attrs: nounwind uwtable
define noundef i32 @write_image(ptr nocapture noundef readnone %0, ptr noundef %1, ptr nocapture noundef readnone %2, i32 noundef %3, ptr nocapture noundef readnone %4, ptr nocapture noundef readnone %5, i32 noundef %6, i32 noundef %7, i32 noundef %8, i32 noundef %9, ptr nocapture noundef readnone %10, i32 noundef %11) local_unnamed_addr #1 {
  %13 = alloca i32, align 4
  %14 = alloca [4096 x i8], align 16
  call void @llvm.lifetime.start.p0(i64 4, ptr nonnull %13) #11
  store i32 1, ptr %13, align 4, !tbaa !6
  call void @llvm.lifetime.start.p0(i64 4096, ptr nonnull %14) #11
  call void @dt_image_full_path(i32 noundef %7, ptr noundef nonnull %14, i64 noundef 4096, ptr noundef nonnull %13) #11
  %15 = call ptr @g_strrstr(ptr noundef nonnull %14, ptr noundef nonnull @.str) #11
  %16 = icmp eq ptr %15, null
  br i1 %16, label %28, label %17

17:                                               ; preds = %12
  %18 = getelementptr inbounds i8, ptr %15, i64 1
  %19 = call noalias ptr (ptr, ...) @g_strconcat(ptr noundef %1, ptr noundef nonnull %18, ptr noundef null) #11
  %20 = call i32 @strcmp(ptr noundef nonnull dereferenceable(1) %14, ptr noundef nonnull dereferenceable(1) %19) #12
  %21 = icmp eq i32 %20, 0
  br i1 %21, label %28, label %22

22:                                               ; preds = %17
  call void @dt_copy_file(ptr noundef nonnull %14, ptr noundef %19) #11
  %23 = call noalias ptr (ptr, ...) @g_strconcat(ptr noundef %19, ptr noundef nonnull @.str.1, ptr noundef null) #11
  %24 = call i32 @dt_exif_xmp_write(i32 noundef %7, ptr noundef %23) #11
  %25 = icmp eq i32 %24, 0
  br i1 %25, label %28, label %26

26:                                               ; preds = %22
  %27 = call i32 @g_unlink(ptr noundef %19) #11
  br label %28

28:                                               ; preds = %26, %22, %17, %12
  %29 = phi i32 [ 1, %12 ], [ 1, %26 ], [ 1, %17 ], [ 0, %22 ]
  %30 = phi ptr [ null, %12 ], [ %19, %26 ], [ %19, %17 ], [ %19, %22 ]
  %31 = phi ptr [ null, %12 ], [ %23, %26 ], [ null, %17 ], [ %23, %22 ]
  call void @g_free(ptr noundef %30) #11
  call void @g_free(ptr noundef %31) #11
  call void @llvm.lifetime.end.p0(i64 4096, ptr nonnull %14) #11
  call void @llvm.lifetime.end.p0(i64 4, ptr nonnull %13) #11
  ret i32 %29
}

; Function Attrs: mustprogress nocallback nofree nosync nounwind willreturn memory(argmem: readwrite)
declare void @llvm.lifetime.start.p0(i64 immarg, ptr nocapture) #2

declare void @dt_image_full_path(i32 noundef, ptr noundef, i64 noundef, ptr noundef) local_unnamed_addr #3

declare ptr @g_strrstr(ptr noundef, ptr noundef) local_unnamed_addr #3

declare noalias ptr @g_strconcat(ptr noundef, ...) local_unnamed_addr #3

; Function Attrs: mustprogress nofree nounwind willreturn memory(argmem: read)
declare i32 @strcmp(ptr nocapture noundef, ptr nocapture noundef) local_unnamed_addr #4

declare void @dt_copy_file(ptr noundef, ptr noundef) local_unnamed_addr #3

declare i32 @dt_exif_xmp_write(i32 noundef, ptr noundef) local_unnamed_addr #3

declare i32 @g_unlink(ptr noundef) local_unnamed_addr #3

declare void @g_free(ptr noundef) local_unnamed_addr #3

; Function Attrs: mustprogress nocallback nofree nosync nounwind willreturn memory(argmem: readwrite)
declare void @llvm.lifetime.end.p0(i64 immarg, ptr nocapture) #2

; Function Attrs: mustprogress nofree norecurse nosync nounwind willreturn memory(none) uwtable
define noundef i64 @params_size(ptr nocapture noundef readnone %0) local_unnamed_addr #0 {
  ret i64 148
}

; Function Attrs: mustprogress nofree nounwind willreturn memory(inaccessiblemem: readwrite) uwtable
define noalias noundef ptr @get_params(ptr nocapture noundef readnone %0) local_unnamed_addr #5 {
  %2 = tail call noalias dereferenceable_or_null(148) ptr @calloc(i64 noundef 1, i64 noundef 148) #13
  ret ptr %2
}

; Function Attrs: mustprogress nofree nounwind willreturn allockind("alloc,zeroed") allocsize(0,1) memory(inaccessiblemem: readwrite)
declare noalias noundef ptr @calloc(i64 noundef, i64 noundef) local_unnamed_addr #6

; Function Attrs: mustprogress nounwind willreturn memory(argmem: readwrite, inaccessiblemem: readwrite) uwtable
define void @free_params(ptr nocapture noundef readnone %0, ptr nocapture noundef %1) local_unnamed_addr #7 {
  tail call void @free(ptr noundef %1) #11
  ret void
}

; Function Attrs: mustprogress nounwind willreturn allockind("free") memory(argmem: readwrite, inaccessiblemem: readwrite)
declare void @free(ptr allocptr nocapture noundef) local_unnamed_addr #8

; Function Attrs: nounwind uwtable
define i32 @set_params(ptr noundef %0, ptr nocapture noundef readnone %1, i32 noundef %2) local_unnamed_addr #1 {
  %4 = sext i32 %2 to i64
  %5 = getelementptr inbounds i8, ptr %0, i64 112
  %6 = load ptr, ptr %5, align 8, !tbaa !10
  %7 = tail call i64 %6(ptr noundef %0) #11
  %8 = icmp ne i64 %7, %4
  %9 = zext i1 %8 to i32
  ret i32 %9
}

; Function Attrs: mustprogress nofree norecurse nosync nounwind willreturn memory(none) uwtable
define noundef i32 @bpp(ptr nocapture noundef readnone %0) local_unnamed_addr #0 {
  ret i32 0
}

; Function Attrs: mustprogress nofree norecurse nosync nounwind willreturn memory(none) uwtable
define noundef nonnull ptr @mime(ptr nocapture noundef readnone %0) local_unnamed_addr #0 {
  ret ptr @.str.2
}

; Function Attrs: mustprogress nofree norecurse nosync nounwind willreturn memory(none) uwtable
define noundef nonnull ptr @extension(ptr nocapture noundef readnone %0) local_unnamed_addr #0 {
  ret ptr @.str.3
}

; Function Attrs: nounwind uwtable
define ptr @name() local_unnamed_addr #1 {
  %1 = tail call ptr @dcgettext(ptr noundef null, ptr noundef nonnull @.str.4, i32 noundef 5) #11
  ret ptr %1
}

; Function Attrs: nounwind
declare ptr @dcgettext(ptr noundef, ptr noundef, i32 noundef) local_unnamed_addr #9

; Function Attrs: mustprogress nofree norecurse nosync nounwind willreturn memory(none) uwtable
define void @init(ptr nocapture noundef readnone %0) local_unnamed_addr #0 {
  ret void
}

; Function Attrs: mustprogress nofree norecurse nosync nounwind willreturn memory(none) uwtable
define void @cleanup(ptr nocapture noundef readnone %0) local_unnamed_addr #0 {
  ret void
}

; Function Attrs: nounwind uwtable
define void @gui_init(ptr nocapture noundef writeonly %0) local_unnamed_addr #1 {
  %2 = tail call ptr @gtk_box_new(i32 noundef 0, i32 noundef 0) #11
  %3 = getelementptr inbounds i8, ptr %0, i64 344
  store ptr %2, ptr %3, align 8, !tbaa !14
  %4 = tail call i64 @gtk_container_get_type() #14
  %5 = tail call ptr @g_type_check_instance_cast(ptr noundef %2, i64 noundef %4) #11
  %6 = tail call ptr @dcgettext(ptr noundef null, ptr noundef nonnull @.str.5, i32 noundef 5) #11
  %7 = tail call ptr @gtk_label_new(ptr noundef %6) #11
  tail call void @gtk_widget_set_halign(ptr noundef %7, i32 noundef 1) #11
  %8 = tail call i64 @gtk_label_get_type() #14
  %9 = tail call ptr @g_type_check_instance_cast(ptr noundef %7, i64 noundef %8) #11
  tail call void @gtk_label_set_xalign(ptr noundef %9, float noundef 0.000000e+00) #11
  %10 = tail call ptr @g_type_check_instance_cast(ptr noundef %7, i64 noundef %8) #11
  tail call void @gtk_label_set_ellipsize(ptr noundef %10, i32 noundef 3) #11
  tail call void @gtk_container_add(ptr noundef %5, ptr noundef %7) #11
  ret void
}

declare ptr @gtk_box_new(i32 noundef, i32 noundef) local_unnamed_addr #3

declare void @gtk_container_add(ptr noundef, ptr noundef) local_unnamed_addr #3

declare ptr @g_type_check_instance_cast(ptr noundef, i64 noundef) local_unnamed_addr #3

; Function Attrs: mustprogress nofree nosync nounwind willreturn memory(none)
declare i64 @gtk_container_get_type() local_unnamed_addr #10

; Function Attrs: mustprogress nofree norecurse nosync nounwind willreturn memory(none) uwtable
define void @gui_cleanup(ptr nocapture noundef readnone %0) local_unnamed_addr #0 {
  ret void
}

; Function Attrs: mustprogress nofree norecurse nosync nounwind willreturn memory(none) uwtable
define void @gui_reset(ptr nocapture noundef readnone %0) local_unnamed_addr #0 {
  ret void
}

declare ptr @gtk_label_new(ptr noundef) local_unnamed_addr #3

declare void @gtk_widget_set_halign(ptr noundef, i32 noundef) local_unnamed_addr #3

declare void @gtk_label_set_xalign(ptr noundef, float noundef) local_unnamed_addr #3

; Function Attrs: mustprogress nofree nosync nounwind willreturn memory(none)
declare i64 @gtk_label_get_type() local_unnamed_addr #10

declare void @gtk_label_set_ellipsize(ptr noundef, i32 noundef) local_unnamed_addr #3


!llvm.module.flags = !{!0, !1, !2, !3, !4, !5}

!0 = !{i32 7, !"Dwarf Version", i32 5}
!1 = !{i32 2, !"Debug Info Version", i32 3}
!2 = !{i32 1, !"wchar_size", i32 4}
!3 = !{i32 8, !"PIC Level", i32 2}
!4 = !{i32 7, !"uwtable", i32 2}
!5 = !{i32 7, !"debug-info-assignment-tracking", i1 true}
!6 = !{!7, !7, i64 0}
!7 = !{!"int", !8, i64 0}
!8 = !{!"omnipotent char", !9, i64 0}
!9 = !{!"Simple C/C++ TBAA"}
!10 = !{!11, !13, i64 112}
!11 = !{!"dt_imageio_module_format_t", !12, i64 0, !13, i64 48, !13, i64 56, !13, i64 64, !13, i64 72, !13, i64 80, !13, i64 88, !13, i64 96, !13, i64 104, !13, i64 112, !13, i64 120, !13, i64 128, !13, i64 136, !13, i64 144, !13, i64 152, !13, i64 160, !13, i64 168, !13, i64 176, !13, i64 184, !13, i64 192, !13, i64 200, !8, i64 208, !13, i64 336, !13, i64 344, !13, i64 352, !7, i64 360, !7, i64 364}
!12 = !{!"dt_action_t", !7, i64 0, !13, i64 8, !13, i64 16, !13, i64 24, !13, i64 32, !13, i64 40}
!13 = !{!"any pointer", !8, i64 0}
!14 = !{!11, !13, i64 344}
